; Function Attrs: mustprogress nounwind uwtable
define internal fastcc void @_ZN12_GLOBAL__N_121PseudoLoweringEmitter15PseudoExpansionD2Ev(ptr noundef nonnull align 8 dereferenceable(520) %0) unnamed_addr #1 align 2 {
  %2 = getelementptr inbounds nuw i8, ptr %0, i64 480
  %3 = tail call noundef i64 @_ZNK4llvm15SmallVectorBaseIjE4sizeEv(ptr noundef nonnull align 8 dereferenceable(33) %2) #14
  %4 = load ptr, ptr %2, align 8
  %5 = getelementptr inbounds nuw i8, ptr %0, i64 496
  %6 = icmp eq ptr %4, %5
  br i1 %6, label %_ZN4llvm10IndexedMapIN12_GLOBAL__N_121PseudoLoweringEmitter6OpDataENS_8identityIjEEED2Ev.exit, label %7

7:                                                ; preds = %1
  tail call void @free(ptr noundef %4) #14
  br label %_ZN4llvm10IndexedMapIN12_GLOBAL__N_121PseudoLoweringEmitter6OpDataENS_8identityIjEEED2Ev.exit

_ZN4llvm10IndexedMapIN12_GLOBAL__N_121PseudoLoweringEmitter6OpDataENS_8identityIjEEED2Ev.exit: ; preds = %1, %7
  %8 = getelementptr inbounds nuw i8, ptr %0, i64 424
  tail call void @_ZNSt7__cxx1112basic_stringIcSt11char_traitsIcESaIcEED1Ev(ptr noundef nonnull align 8 dereferenceable(32) %8) #14
  %9 = getelementptr inbounds nuw i8, ptr %0, i64 392
  %10 = load ptr, ptr %9, align 8
  %.not.i.i.i.i = icmp eq ptr %10, null
  br i1 %.not.i.i.i.i, label %_ZNSt6vectorIPN4llvm6RecordESaIS2_EED2Ev.exit.i, label %11

11:                                               ; preds = %_ZN4llvm10IndexedMapIN12_GLOBAL__N_121PseudoLoweringEmitter6OpDataENS_8identityIjEEED2Ev.exit
  %12 = getelementptr inbounds nuw i8, ptr %0, i64 408
  %13 = load ptr, ptr %12, align 8
  %14 = ptrtoint ptr %13 to i64
  %15 = ptrtoint ptr %10 to i64
  %16 = sub i64 %14, %15
  tail call void @_ZdlPvm(ptr noundef nonnull %10, i64 noundef %16) #16
  br label %_ZNSt6vectorIPN4llvm6RecordESaIS2_EED2Ev.exit.i

_ZNSt6vectorIPN4llvm6RecordESaIS2_EED2Ev.exit.i:  ; preds = %11, %_ZN4llvm10IndexedMapIN12_GLOBAL__N_121PseudoLoweringEmitter6OpDataENS_8identityIjEEED2Ev.exit
  %17 = getelementptr inbounds nuw i8, ptr %0, i64 368
  %18 = load ptr, ptr %17, align 8
  %.not.i.i.i1.i = icmp eq ptr %18, null
  br i1 %.not.i.i.i1.i, label %_ZN4llvm18CodeGenInstructionD2Ev.exit, label %19

19:                                               ; preds = %_ZNSt6vectorIPN4llvm6RecordESaIS2_EED2Ev.exit.i
  %20 = getelementptr inbounds nuw i8, ptr %0, i64 384
  %21 = load ptr, ptr %20, align 8
  %22 = ptrtoint ptr %21 to i64
  %23 = ptrtoint ptr %18 to i64
  %24 = sub i64 %22, %23
  tail call void @_ZdlPvm(ptr noundef nonnull %18, i64 noundef %24) #16
  br label %_ZN4llvm18CodeGenInstructionD2Ev.exit

_ZN4llvm18CodeGenInstructionD2Ev.exit:            ; preds = %_ZNSt6vectorIPN4llvm6RecordESaIS2_EED2Ev.exit.i, %19
  %25 = getelementptr inbounds nuw i8, ptr %0, i64 296
  tail call void @_ZN4llvm14CGIOperandListD2Ev(ptr noundef nonnull align 8 dereferenceable(67) %25) #14
  %26 = getelementptr inbounds nuw i8, ptr %0, i64 264
  tail call void @_ZNSt7__cxx1112basic_stringIcSt11char_traitsIcESaIcEED1Ev(ptr noundef nonnull align 8 dereferenceable(32) %26) #14
  %27 = getelementptr inbounds nuw i8, ptr %0, i64 184
  tail call void @_ZNSt7__cxx1112basic_stringIcSt11char_traitsIcESaIcEED1Ev(ptr noundef nonnull align 8 dereferenceable(32) %27) #14
  %28 = getelementptr inbounds nuw i8, ptr %0, i64 152
  %29 = load ptr, ptr %28, align 8
  %.not.i.i.i.i1 = icmp eq ptr %29, null
  br i1 %.not.i.i.i.i1, label %_ZNSt6vectorIPN4llvm6RecordESaIS2_EED2Ev.exit.i2, label %30

30:                                               ; preds = %_ZN4llvm18CodeGenInstructionD2Ev.exit
  %31 = getelementptr inbounds nuw i8, ptr %0, i64 168
  %32 = load ptr, ptr %31, align 8
  %33 = ptrtoint ptr %32 to i64
  %34 = ptrtoint ptr %29 to i64
  %35 = sub i64 %33, %34
  tail call void @_ZdlPvm(ptr noundef nonnull %29, i64 noundef %35) #16
  br label %_ZNSt6vectorIPN4llvm6RecordESaIS2_EED2Ev.exit.i2

_ZNSt6vectorIPN4llvm6RecordESaIS2_EED2Ev.exit.i2: ; preds = %30, %_ZN4llvm18CodeGenInstructionD2Ev.exit
  %36 = getelementptr inbounds nuw i8, ptr %0, i64 128
  %37 = load ptr, ptr %36, align 8
  %.not.i.i.i1.i3 = icmp eq ptr %37, null
  br i1 %.not.i.i.i1.i3, label %_ZN4llvm18CodeGenInstructionD2Ev.exit4, label %38

38:                                               ; preds = %_ZNSt6vectorIPN4llvm6RecordESaIS2_EED2Ev.exit.i2
  %39 = getelementptr inbounds nuw i8, ptr %0, i64 144
  %40 = load ptr, ptr %39, align 8
  %41 = ptrtoint ptr %40 to i64
  %42 = ptrtoint ptr %37 to i64
  %43 = sub i64 %41, %42
  tail call void @_ZdlPvm(ptr noundef nonnull %37, i64 noundef %43) #16
  br label %_ZN4llvm18CodeGenInstructionD2Ev.exit4

_ZN4llvm18CodeGenInstructionD2Ev.exit4:           ; preds = %_ZNSt6vectorIPN4llvm6RecordESaIS2_EED2Ev.exit.i2, %38
  %44 = getelementptr inbounds nuw i8, ptr %0, i64 56
  tail call void @_ZN4llvm14CGIOperandListD2Ev(ptr noundef nonnull align 8 dereferenceable(67) %44) #14
  %45 = getelementptr inbounds nuw i8, ptr %0, i64 24
  tail call void @_ZNSt7__cxx1112basic_stringIcSt11char_traitsIcESaIcEED1Ev(ptr noundef nonnull align 8 dereferenceable(32) %45) #14
  ret void
}